Certificate:
    Data:
        Version: 3 (0x2)
        Serial Number:
            1e:e0:e4:c3:e5:ea:cf:75:7a:7c:6f:e8:0f:fb:8a:a3
    Signature Algorithm: sha256WithRSAEncryption
        Issuer: CN=Betcity
        Validity
            Not Before: Mar 27 07:28:20 2024 GMT
            Not After : Mar 27 07:28:20 2025 GMT
        Subject: CN=mongo.panda3.betcity.dev
        Subject Public Key Info:
            Public Key Algorithm: rsaEncryption
                Public-Key: (4096 bit)
                Modulus:
                    00:ca:9d:ba:e8:cb:79:5f:96:e4:6a:68:a8:35:84:
                    35:52:ef:73:82:eb:0e:5f:4e:a5:17:81:6f:12:85:
                    db:6c:9d:8d:0d:90:e3:d1:b8:3f:f8:fa:7c:ec:f6:
                    a9:2a:d0:c8:f0:1e:29:0d:45:a3:09:75:db:dc:a7:
                    ab:a2:f4:71:b0:e6:51:3d:01:82:dd:52:dd:34:c4:
                    81:f1:9c:69:99:ca:5f:05:9c:7b:98:78:17:8a:18:
                    23:cb:dc:1e:f6:40:82:af:23:b0:32:4c:11:77:c1:
                    a6:0a:74:eb:e3:5b:9a:2f:99:40:a8:be:83:6f:63:
                    88:6e:eb:35:c1:a9:1a:24:aa:2b:25:60:28:d9:1d:
                    6b:c2:05:b2:d1:87:ee:7b:57:02:50:dd:bb:f6:d8:
                    6a:b5:39:b2:6e:9f:e9:4f:0b:ef:05:6f:db:b0:0f:
                    ea:48:b6:71:ff:41:d1:53:0a:2c:ed:61:67:1e:80:
                    c4:7c:4d:54:93:c0:23:47:54:be:0e:20:3c:a5:62:
                    ec:1e:32:5c:f3:df:8f:c6:81:54:55:21:bd:9e:af:
                    bf:60:5f:cf:67:3f:5d:6f:f6:8a:29:d6:50:ef:05:
                    d8:37:52:1f:8b:81:ae:e2:ca:a3:f6:8b:c8:44:42:
                    fb:4d:29:f2:43:a9:bf:b3:b6:5a:9f:cc:de:79:90:
                    07:fa:a7:2f:b3:61:ca:ac:52:7c:b2:36:c0:ea:9b:
                    52:63:af:dd:82:08:d4:db:26:c7:d5:1d:e4:d5:61:
                    cf:19:1a:89:fb:84:f1:1b:28:4f:e2:a2:45:21:3e:
                    4d:e7:12:f8:fb:59:da:f4:0e:4e:57:bd:80:91:9e:
                    b4:f0:93:70:aa:81:e8:c0:65:da:36:8c:ea:fd:1c:
                    0a:53:2a:57:97:55:88:3c:87:6d:24:cd:8d:e5:62:
                    3f:23:08:80:a6:3b:cb:2e:44:d2:17:cb:28:2b:7d:
                    46:73:e4:dc:a3:b4:5b:a5:d1:3e:37:af:ce:9e:94:
                    7a:8e:20:7b:30:ee:d5:41:69:51:71:27:0f:54:88:
                    e7:ee:d3:ad:40:22:e1:17:3d:6c:2a:84:8e:ee:7c:
                    a8:9c:4d:cb:d8:35:0f:f0:ef:a2:aa:a1:82:d6:61:
                    c8:d7:16:80:d9:23:6b:d8:b3:56:6c:47:70:95:06:
                    05:d3:89:3b:49:f0:7d:c9:14:ba:f0:55:19:01:21:
                    24:e2:6f:a4:f3:68:94:3c:79:1d:5b:41:8b:b7:f1:
                    00:be:c6:8b:af:6f:36:49:96:9b:d1:2c:01:9c:12:
                    89:9c:28:fa:44:f5:3c:aa:e5:c2:a9:84:09:14:f7:
                    89:5f:fa:bb:88:73:6c:6a:4a:c8:69:cb:bd:75:9c:
                    9d:ae:e7
                Exponent: 65537 (0x10001)
        X509v3 extensions:
            X509v3 Basic Constraints: 
                CA:FALSE
            X509v3 Subject Key Identifier: 
                ED:31:11:36:32:67:D1:C6:A0:4C:FD:6F:25:07:84:50:63:5A:48:AF
            X509v3 Authority Key Identifier: 
                keyid:3D:61:73:BF:15:EA:FC:A9:F4:6D:E4:4A:19:55:E2:71:25:6D:33:50
                DirName:/CN=Betcity
                serial:FF:98:B4:77:69:91:D0:55

            X509v3 Extended Key Usage: 
                TLS Web Server Authentication
            X509v3 Key Usage: 
                Digital Signature, Key Encipherment
            X509v3 Subject Alternative Name: 
                DNS:mongo.panda3.betcity.dev, DNS:panda3-test-mongo_ssl, DNS:dc2-panda3-test-mongo_ssl
    Signature Algorithm: sha256WithRSAEncryption
         6d:bc:b7:7e:b1:7d:41:1e:e6:a0:c2:f6:5c:96:09:7f:df:a7:
         e5:32:ec:30:6b:49:2b:57:d3:2d:88:1d:a9:92:bb:97:db:c1:
         42:cc:74:f1:4a:a8:08:d1:72:ae:02:86:44:92:17:e6:29:23:
         97:62:54:1d:92:28:5b:a2:fd:06:40:46:46:b0:59:3d:77:d1:
         6c:d6:ff:7b:9d:c7:e4:e2:54:68:4c:12:d2:26:81:c7:3f:10:
         75:95:f9:8c:10:95:14:e4:26:c9:dd:c3:56:fa:06:fb:8d:84:
         0e:18:1c:45:52:9e:93:67:c2:81:29:48:ed:29:d6:16:de:67:
         b5:86:3b:f5:d6:5a:cf:1d:3a:bf:ef:cd:88:6f:45:ae:1e:14:
         6a:ba:7e:81:61:6f:6e:fe:eb:f7:d4:2d:0a:eb:59:2f:09:25:
         7b:c7:4a:02:c6:68:ce:fd:68:6b:08:5f:5f:83:63:3d:57:e4:
         48:7e:81:eb:8c:cf:4d:af:f8:b1:f1:2a:5a:d1:00:af:be:9c:
         d9:87:fa:ee:0f:7c:c6:2e:ad:82:dc:c8:f0:fc:f9:2f:a8:50:
         27:bd:b7:13:cb:e5:db:73:85:36:38:d5:27:9e:35:d4:8e:57:
         e8:b2:57:41:c4:84:50:ba:a4:64:97:10:94:bf:53:ad:fd:5d:
         4c:3c:3d:7c:2b:4e:51:3d:a2:67:14:11:cf:8b:bc:a8:a4:1f:
         91:d9:8f:6f:e0:f9:9c:ce:36:45:80:da:7b:ee:8f:d1:51:6e:
         52:4b:bb:50:bf:d6:35:5a:82:c5:e8:0b:8f:cd:c9:89:d8:86:
         03:fa:f7:82:8a:6c:f9:2c:bc:3a:d8:1e:b6:ed:35:ee:fc:c8:
         3a:65:75:a1:b5:7e:b8:b0:87:28:f4:30:92:5e:29:19:a8:56:
         e9:8d:44:a7:86:68:31:c0:1b:d6:39:1a:de:fa:9e:55:1a:fc:
         ca:75:86:33:3e:a5:05:70:b4:86:c2:a1:b4:d8:8b:fd:c1:45:
         36:d9:0e:58:19:3f:ea:a8:65:dd:e5:cb:50:95:88:13:2d:f2:
         ff:90:fb:aa:db:68:22:9a:72:f0:5a:5a:47:f0:48:99:4a:28:
         cb:63:f8:b6:de:49:d9:39:7a:46:ff:a9:19:3a:20:65:53:ab:
         5f:52:5e:5c:3d:df:cd:3f:8e:bf:3f:cc:8f:15:4c:8f:e9:46:
         34:07:2a:0b:2f:8f:85:53:f9:8b:23:41:05:9d:76:5d:ee:5e:
         09:1c:d8:94:ce:22:6e:48:3a:64:0f:47:29:bb:c1:14:2f:a0:
         f4:a9:74:cc:02:ab:8e:5d:08:a0:d0:aa:80:22:df:8d:a4:d0:
         d2:85:ff:3e:6a:c2:3f:46
-----BEGIN CERTIFICATE-----
MIIFqjCCA5KgAwIBAgIQHuDkw+Xqz3V6fG/oD/uKozANBgkqhkiG9w0BAQsFADAS
MRAwDgYDVQQDDAdCZXRjaXR5MB4XDTI0MDMyNzA3MjgyMFoXDTI1MDMyNzA3Mjgy
MFowIzEhMB8GA1UEAwwYbW9uZ28ucGFuZGEzLmJldGNpdHkuZGV2MIICIjANBgkq
hkiG9w0BAQEFAAOCAg8AMIICCgKCAgEAyp266Mt5X5bkamioNYQ1Uu9zgusOX06l
F4FvEoXbbJ2NDZDj0bg/+Pp87PapKtDI8B4pDUWjCXXb3KerovRxsOZRPQGC3VLd
NMSB8ZxpmcpfBZx7mHgXihgjy9we9kCCryOwMkwRd8GmCnTr41uaL5lAqL6Db2OI
bus1wakaJKorJWAo2R1rwgWy0Yfue1cCUN279thqtTmybp/pTwvvBW/bsA/qSLZx
/0HRUwos7WFnHoDEfE1Uk8AjR1S+DiA8pWLsHjJc89+PxoFUVSG9nq+/YF/PZz9d
b/aKKdZQ7wXYN1Ifi4Gu4sqj9ovIREL7TSnyQ6m/s7Zan8zeeZAH+qcvs2HKrFJ8
sjbA6ptSY6/dggjU2ybH1R3k1WHPGRqJ+4TxGyhP4qJFIT5N5xL4+1na9A5OV72A
kZ608JNwqoHowGXaNozq/RwKUypXl1WIPIdtJM2N5WI/IwiApjvLLkTSF8soK31G
c+Tco7RbpdE+N6/OnpR6jiB7MO7VQWlRcScPVIjn7tOtQCLhFz1sKoSO7nyonE3L
2DUP8O+iqqGC1mHI1xaA2SNr2LNWbEdwlQYF04k7SfB9yRS68FUZASEk4m+k82iU
PHkdW0GLt/EAvsaLr282SZab0SwBnBKJnCj6RPU8quXCqYQJFPeJX/q7iHNsakrI
acu9dZydrucCAwEAAaOB6jCB5zAJBgNVHRMEAjAAMB0GA1UdDgQWBBTtMRE2MmfR
xqBM/W8lB4RQY1pIrzBCBgNVHSMEOzA5gBQ9YXO/Fer8qfRt5EoZVeJxJW0zUKEW
pBQwEjEQMA4GA1UEAwwHQmV0Y2l0eYIJAP+YtHdpkdBVMBMGA1UdJQQMMAoGCCsG
AQUFBwMBMAsGA1UdDwQEAwIFoDBVBgNVHREETjBMghhtb25nby5wYW5kYTMuYmV0
Y2l0eS5kZXaCFXBhbmRhMy10ZXN0LW1vbmdvX3NzbIIZZGMyLXBhbmRhMy10ZXN0
LW1vbmdvX3NzbDANBgkqhkiG9w0BAQsFAAOCAgEAbby3frF9QR7moML2XJYJf9+n
5TLsMGtJK1fTLYgdqZK7l9vBQsx08UqoCNFyrgKGRJIX5ikjl2JUHZIoW6L9BkBG
RrBZPXfRbNb/e53H5OJUaEwS0iaBxz8QdZX5jBCVFOQmyd3DVvoG+42EDhgcRVKe
k2fCgSlI7SnWFt5ntYY79dZazx06v+/NiG9Frh4Uarp+gWFvbv7r99QtCutZLwkl
e8dKAsZozv1oawhfX4NjPVfkSH6B64zPTa/4sfEqWtEAr76c2Yf67g98xi6tgtzI
8Pz5L6hQJ723E8vl23OFNjjVJ5411I5X6LJXQcSEULqkZJcQlL9Trf1dTDw9fCtO
UT2iZxQRz4u8qKQfkdmPb+D5nM42RYDae+6P0VFuUku7UL/WNVqCxegLj83JidiG
A/r3gops+Sy8Otgetu017vzIOmV1obV+uLCHKPQwkl4pGahW6Y1Ep4ZoMcAb1jka
3vqeVRr8ynWGMz6lBXC0hsKhtNiL/cFFNtkOWBk/6qhl3eXLUJWIEy3y/5D7qtto
Ippy8FpaR/BImUooy2P4tt5J2Tl6Rv+pGTogZVOrX1JeXD3fzT+Ovz/MjxVMj+lG
NAcqCy+PhVP5iyNBBZ12Xe5eCRzYlM4ibkg6ZA9HKbvBFC+g9Kl0zAKrjl0IoNCq
gCLfjaTQ0oX/PmrCP0Y=
-----END CERTIFICATE-----
