Certificate:
    Data:
        Version: 3 (0x2)
        Serial Number:
            70:e6:fa:ed:6c:06:b4:88:57:93:36:cf:78:67:c2:8f
    Signature Algorithm: sha256WithRSAEncryption
        Issuer: CN=Betcity
        Validity
            Not Before: Feb  6 14:44:05 2024 GMT
            Not After : Feb  5 14:44:05 2025 GMT
        Subject: CN=panda.betcity.dev
        Subject Public Key Info:
            Public Key Algorithm: rsaEncryption
                Public-Key: (4096 bit)
                Modulus:
                    00:d7:3b:31:58:ec:6b:78:3f:14:19:2e:97:e2:46:
                    27:05:ad:83:aa:c9:14:90:6f:01:fa:1b:1e:52:c0:
                    32:9b:49:2f:6c:0d:5d:4e:af:bf:13:d9:c5:20:55:
                    25:3c:b8:28:65:58:3c:41:b2:a8:91:74:ec:45:d3:
                    b0:c0:7c:ce:fe:84:6c:10:fd:7c:8c:67:67:5b:65:
                    73:ab:6b:75:40:88:12:19:c1:d5:cf:02:be:85:c0:
                    fb:c6:f6:26:0c:d8:5d:4d:c2:76:77:6d:2a:85:74:
                    c9:7b:9b:7d:d2:e7:80:8a:2f:86:e0:71:f7:12:f3:
                    2b:db:2b:17:da:73:81:f4:a1:45:cb:a8:33:9a:1e:
                    de:61:d8:60:22:be:5b:cc:f5:9f:7d:49:c4:ce:fe:
                    d3:28:fd:9f:0d:bb:1e:27:df:67:39:f0:08:67:b3:
                    ff:ea:73:dd:77:fd:64:bf:e7:2b:78:ca:1d:de:76:
                    70:3e:2a:ac:98:9b:49:6f:78:0c:4b:64:b9:3a:f3:
                    62:33:b8:41:61:d8:95:c8:34:4e:c4:00:e2:f5:5d:
                    52:3c:34:66:9d:dd:d7:90:e8:7c:34:d7:fb:bb:06:
                    20:a8:e5:35:6a:13:a6:ce:5d:1e:07:6c:20:ee:a3:
                    a1:95:61:98:c4:a2:22:87:8a:6c:79:4d:d0:c9:13:
                    bc:3e:7d:dc:dc:0c:93:bd:12:86:62:d7:74:80:05:
                    9e:82:2d:2a:4c:4a:07:35:59:a9:8b:ee:1a:c5:8f:
                    a8:86:24:4a:6d:25:81:c3:6a:bb:fb:07:8f:df:cb:
                    75:76:40:87:b9:84:92:44:5e:3f:97:5d:a8:17:7e:
                    a6:d6:c3:0a:5f:d3:24:cb:73:ad:f5:42:a7:f6:69:
                    c6:a4:da:ce:74:a4:6b:f6:8d:ea:67:2f:77:e2:78:
                    ba:b2:02:49:e4:04:5b:f1:49:b7:5f:4f:e8:5d:74:
                    cc:0c:25:81:e8:62:a8:c2:ba:12:0b:85:82:d4:c2:
                    b7:c4:73:b3:d5:40:17:99:61:a8:3e:ec:37:ff:06:
                    6b:b1:c4:8f:d0:58:2b:fe:1a:64:3f:02:82:50:92:
                    44:d0:61:3e:aa:6f:06:c6:e8:e2:77:14:b0:dd:35:
                    b2:f9:3e:3b:b3:24:2e:2d:26:dc:5a:be:4a:5d:67:
                    7a:57:ef:47:c4:e3:75:19:91:2c:cc:36:5e:ae:ad:
                    0f:33:fd:fb:a4:97:29:90:4d:0c:49:31:a0:1c:b2:
                    86:7d:7f:e8:69:5a:54:8a:87:e3:50:c6:0d:93:b5:
                    63:e4:03:d3:73:b5:03:91:f6:77:d6:ae:ea:ec:1b:
                    ed:79:b4:2e:52:7b:db:2f:2e:91:68:5c:2b:8d:b1:
                    0b:52:e5
                Exponent: 65537 (0x10001)
        X509v3 extensions:
            X509v3 Basic Constraints: 
                CA:FALSE
            X509v3 Subject Key Identifier: 
                72:03:29:05:BE:79:5D:B7:66:2C:F0:A1:C9:ED:CF:C8:1A:A0:96:45
            X509v3 Authority Key Identifier: 
                keyid:3D:61:73:BF:15:EA:FC:A9:F4:6D:E4:4A:19:55:E2:71:25:6D:33:50
                DirName:/CN=Betcity
                serial:FF:98:B4:77:69:91:D0:55

            X509v3 Extended Key Usage: 
                TLS Web Server Authentication
            X509v3 Key Usage: 
                Digital Signature, Key Encipherment
            X509v3 Subject Alternative Name: 
                DNS:*.panda.betcity.dev, DNS:panda.betcity.dev
    Signature Algorithm: sha256WithRSAEncryption
         9a:88:89:67:1f:e8:90:c7:55:68:80:e8:b4:33:59:22:b5:b5:
         4d:23:b5:f0:98:d4:35:73:ca:6a:dc:92:10:88:97:8f:a7:48:
         98:c8:70:25:94:12:0b:9d:98:fb:68:30:5f:e7:d8:1a:1a:75:
         2d:b2:67:88:28:4e:6e:86:d1:67:15:10:2a:af:2a:85:bf:55:
         9b:ed:f9:e5:5f:cb:82:82:d7:00:46:0d:fa:5c:a6:b8:70:0d:
         9e:32:42:4f:71:e3:26:f7:11:48:a4:9a:5d:3b:a5:12:f5:0a:
         2b:14:f9:89:ef:99:10:dc:4a:d7:89:76:0c:cf:98:4e:37:29:
         49:06:f3:97:7c:6a:88:5a:f9:bc:a3:b8:72:3b:c0:bf:aa:af:
         93:65:b0:33:7f:46:6d:8d:9e:97:51:a2:ca:18:56:df:8d:55:
         3a:15:82:45:ff:ed:cd:db:97:fa:02:04:26:58:e0:31:cc:9f:
         db:10:66:59:80:72:a4:09:d8:e9:32:ab:1a:ab:a5:70:09:fd:
         d1:b7:f3:c4:33:a5:ae:56:b5:43:9a:5e:15:7f:ff:c9:fe:09:
         63:7e:de:bc:23:d7:16:08:be:2e:8a:91:9f:aa:22:1c:56:f0:
         6a:75:d6:f1:e8:2c:01:e7:94:9a:91:ee:ac:6f:5f:d8:ed:2a:
         7a:16:8d:a9:85:cf:2e:3f:bb:d3:36:4e:b4:f0:f8:de:1b:69:
         7a:19:cd:be:60:8b:82:73:5b:b9:1d:ca:d4:ab:12:43:16:a8:
         91:94:cf:09:eb:68:67:f8:e7:40:32:5b:8e:f1:a2:1d:13:94:
         0a:84:6a:51:58:19:56:b3:4a:7f:b6:4a:68:ec:13:ab:fe:33:
         a8:e0:b8:d0:1c:41:53:2f:34:60:3d:c4:46:cb:72:5b:23:c5:
         c0:47:21:f4:d3:8f:3d:06:d3:fe:7c:6a:a2:44:50:1b:1f:5d:
         b8:b8:aa:e2:17:25:7e:7f:c4:e7:ac:c7:f5:d6:a2:65:c0:e3:
         aa:2d:4e:e5:53:72:7d:a0:ef:68:01:b1:fe:ff:25:4e:cc:b2:
         e3:40:72:d0:c3:80:fd:94:1c:98:4e:49:06:ae:13:5b:52:a9:
         3e:09:8b:83:24:44:9e:15:8d:0b:74:d0:23:d5:18:bc:c7:05:
         92:4d:50:42:eb:96:d4:8c:65:4d:55:8d:00:4f:4e:c5:d0:e6:
         6b:ce:13:6c:03:4f:37:c9:53:92:5c:2e:17:73:06:aa:f5:97:
         29:c6:24:70:ee:5b:84:51:8d:9d:22:ac:9a:c8:85:78:f3:0c:
         79:8e:ca:bc:dc:14:8b:8e:d2:81:3b:e3:86:03:cc:ba:89:6e:
         7c:c6:15:e7:ff:f6:ed:8d
-----BEGIN CERTIFICATE-----
MIIFfzCCA2egAwIBAgIQcOb67WwGtIhXkzbPeGfCjzANBgkqhkiG9w0BAQsFADAS
MRAwDgYDVQQDDAdCZXRjaXR5MB4XDTI0MDIwNjE0NDQwNVoXDTI1MDIwNTE0NDQw
NVowHDEaMBgGA1UEAwwRcGFuZGEuYmV0Y2l0eS5kZXYwggIiMA0GCSqGSIb3DQEB
AQUAA4ICDwAwggIKAoICAQDXOzFY7Gt4PxQZLpfiRicFrYOqyRSQbwH6Gx5SwDKb
SS9sDV1Or78T2cUgVSU8uChlWDxBsqiRdOxF07DAfM7+hGwQ/XyMZ2dbZXOra3VA
iBIZwdXPAr6FwPvG9iYM2F1NwnZ3bSqFdMl7m33S54CKL4bgcfcS8yvbKxfac4H0
oUXLqDOaHt5h2GAivlvM9Z99ScTO/tMo/Z8Nux4n32c58Ahns//qc913/WS/5yt4
yh3ednA+KqyYm0lveAxLZLk682IzuEFh2JXINE7EAOL1XVI8NGad3deQ6Hw01/u7
BiCo5TVqE6bOXR4HbCDuo6GVYZjEoiKHimx5TdDJE7w+fdzcDJO9EoZi13SABZ6C
LSpMSgc1WamL7hrFj6iGJEptJYHDarv7B4/fy3V2QIe5hJJEXj+XXagXfqbWwwpf
0yTLc631Qqf2acak2s50pGv2jepnL3fieLqyAknkBFvxSbdfT+hddMwMJYHoYqjC
uhILhYLUwrfEc7PVQBeZYag+7Df/BmuxxI/QWCv+GmQ/AoJQkkTQYT6qbwbG6OJ3
FLDdNbL5PjuzJC4tJtxavkpdZ3pX70fE43UZkSzMNl6urQ8z/fuklymQTQxJMaAc
soZ9f+hpWlSKh+NQxg2TtWPkA9NztQOR9nfWrursG+15tC5Se9svLpFoXCuNsQtS
5QIDAQABo4HGMIHDMAkGA1UdEwQCMAAwHQYDVR0OBBYEFHIDKQW+eV23Zizwocnt
z8gaoJZFMEIGA1UdIwQ7MDmAFD1hc78V6vyp9G3kShlV4nElbTNQoRakFDASMRAw
DgYDVQQDDAdCZXRjaXR5ggkA/5i0d2mR0FUwEwYDVR0lBAwwCgYIKwYBBQUHAwEw
CwYDVR0PBAQDAgWgMDEGA1UdEQQqMCiCEyoucGFuZGEuYmV0Y2l0eS5kZXaCEXBh
bmRhLmJldGNpdHkuZGV2MA0GCSqGSIb3DQEBCwUAA4ICAQCaiIlnH+iQx1VogOi0
M1kitbVNI7XwmNQ1c8pq3JIQiJePp0iYyHAllBILnZj7aDBf59gaGnUtsmeIKE5u
htFnFRAqryqFv1Wb7fnlX8uCgtcARg36XKa4cA2eMkJPceMm9xFIpJpdO6US9Qor
FPmJ75kQ3ErXiXYMz5hONylJBvOXfGqIWvm8o7hyO8C/qq+TZbAzf0ZtjZ6XUaLK
GFbfjVU6FYJF/+3N25f6AgQmWOAxzJ/bEGZZgHKkCdjpMqsaq6VwCf3Rt/PEM6Wu
VrVDml4Vf//J/gljft68I9cWCL4uipGfqiIcVvBqddbx6CwB55Sake6sb1/Y7Sp6
Fo2phc8uP7vTNk608PjeG2l6Gc2+YIuCc1u5HcrUqxJDFqiRlM8J62hn+OdAMluO
8aIdE5QKhGpRWBlWs0p/tkpo7BOr/jOo4LjQHEFTLzRgPcRGy3JbI8XARyH00489
BtP+fGqiRFAbH124uKriFyV+f8TnrMf11qJlwOOqLU7lU3J9oO9oAbH+/yVOzLLj
QHLQw4D9lByYTkkGrhNbUqk+CYuDJESeFY0LdNAj1Ri8xwWSTVBC65bUjGVNVY0A
T07F0OZrzhNsA083yVOSXC4Xcwaq9ZcpxiRw7luEUY2dIqyayIV48wx5jsq83BSL
jtKBO+OGA8y6iW58xhXn//btjQ==
-----END CERTIFICATE-----
